EXPORTS
    _Z14initEngineGlutiPPc @1
    _Z15initGlutDrawingiPPc @2
    _Z16startGluthThreadPv @3
    _Z8drawGlutv @4
    _ZN10EngineGlut11drawSurfaceEiiiiii @5
    _ZN10EngineGlut8drawLineEiiii @6
    _ZN10EngineGlut9drawClearEv @7
    _ZN10EngineGlut9drawPointEii @8
    _ZN10EngineGlutC1Ev @9
    _ZN10EngineGlutC2Ev @10
    _ZN8GlutData11addTriangleEiiiiii @11
    _ZN8GlutData11getInstanceEv @12
    _ZN8GlutData12getTrianglesEv @13
    _ZN8GlutData7addLineEiiii @14
    _ZN8GlutData8addPointEii @15
    _ZN8GlutData8getLinesEv @16
    _ZN8GlutData8instanceE @17 DATA
    _ZN8GlutData9getPointsEv @18
    _ZN8GlutData9removeAllEv @19
    _ZN8GlutDataC1Ev @20
    _ZN8GlutDataC2Ev @21
    _ZN9__gnu_cxx13new_allocatorI9__Point2DE7destroyEPS1_ @22
    _ZN9__gnu_cxx13new_allocatorI9__Point2DE9constructEPS1_RKS1_ @23
    _ZN9__gnu_cxx13new_allocatorI9__Point2DEC2Ev @24
    _ZN9__gnu_cxx13new_allocatorI9__Point2DED2Ev @25
    _ZN9__gnu_cxx13new_allocatorISt10_List_nodeI9__Point2DEE10deallocateEPS3_j @26
    _ZN9__gnu_cxx13new_allocatorISt10_List_nodeI9__Point2DEE8allocateEjPKv @27
    _ZN9__gnu_cxx13new_allocatorISt10_List_nodeI9__Point2DEEC2ERKS4_ @28
    _ZN9__gnu_cxx13new_allocatorISt10_List_nodeI9__Point2DEEC2Ev @29
    _ZN9__gnu_cxx13new_allocatorISt10_List_nodeI9__Point2DEED2Ev @30
    _ZNK9__gnu_cxx13new_allocatorISt10_List_nodeI9__Point2DEE8max_sizeEv @31
    _ZNKSt10_List_baseI9__Point2DSaIS0_EE13get_allocatorEv @32
    _ZNKSt10_List_baseI9__Point2DSaIS0_EE19_M_get_Tp_allocatorEv @33
    _ZNKSt10_List_baseI9__Point2DSaIS0_EE21_M_get_Node_allocatorEv @34
    _ZNKSt14_List_iteratorI9__Point2DE13_M_const_castEv @35
    _ZNKSt14_List_iteratorI9__Point2DEdeEv @36
    _ZNKSt14_List_iteratorI9__Point2DEneERKS1_ @37
    _ZNKSt14_List_iteratorI9__Point2DEptEv @38
    _ZNKSt20_List_const_iteratorI9__Point2DEdeEv @39
    _ZNKSt20_List_const_iteratorI9__Point2DEeqERKS1_ @40
    _ZNKSt20_List_const_iteratorI9__Point2DEneERKS1_ @41
    _ZNKSt4listI9__Point2DSaIS0_EE13get_allocatorEv @42
    _ZNKSt4listI9__Point2DSaIS0_EE3endEv @43
    _ZNKSt4listI9__Point2DSaIS0_EE5beginEv @44
    _ZNKSt4listI9__Point2DSaIS0_EE5emptyEv @45
    _ZNSaI9__Point2DEC1ISt10_List_nodeIS_EEERKSaIT_E @46
    _ZNSaI9__Point2DED1Ev @47
    _ZNSaISt10_List_nodeI9__Point2DEEC1IS0_EERKSaIT_E @48
    _ZNSaISt10_List_nodeI9__Point2DEEC2ERKS2_ @49
    _ZNSaISt10_List_nodeI9__Point2DEEC2Ev @50
    _ZNSaISt10_List_nodeI9__Point2DEED1Ev @51
    _ZNSaISt10_List_nodeI9__Point2DEED2Ev @52
    _ZNSt10_List_baseI9__Point2DSaIS0_EE10_List_implC1ERKSaISt10_List_nodeIS0_EE @53
    _ZNSt10_List_baseI9__Point2DSaIS0_EE10_List_implC1Ev @54
    _ZNSt10_List_baseI9__Point2DSaIS0_EE10_List_implD1Ev @55
    _ZNSt10_List_baseI9__Point2DSaIS0_EE11_M_get_nodeEv @56
    _ZNSt10_List_baseI9__Point2DSaIS0_EE11_M_put_nodeEPSt10_List_nodeIS0_E @57
    _ZNSt10_List_baseI9__Point2DSaIS0_EE21_M_get_Node_allocatorEv @58
    _ZNSt10_List_baseI9__Point2DSaIS0_EE7_M_initEv @59
    _ZNSt10_List_baseI9__Point2DSaIS0_EE8_M_clearEv @60
    _ZNSt10_List_baseI9__Point2DSaIS0_EEC2ERKSaISt10_List_nodeIS0_EE @61
    _ZNSt10_List_baseI9__Point2DSaIS0_EEC2Ev @62
    _ZNSt10_List_baseI9__Point2DSaIS0_EED2Ev @63
    _ZNSt11__alloc_neqISaISt10_List_nodeI9__Point2DEELb1EE8_S_do_itERKS3_S6_ @64
    _ZNSt14_List_iteratorI9__Point2DEC1EPNSt8__detail15_List_node_baseE @65
    _ZNSt14_List_iteratorI9__Point2DEC1Ev @66
    _ZNSt14_List_iteratorI9__Point2DEppEi @67
    _ZNSt14_List_iteratorI9__Point2DEppEv @68
    _ZNSt20_List_const_iteratorI9__Point2DEC1EPKNSt8__detail15_List_node_baseE @69
    _ZNSt20_List_const_iteratorI9__Point2DEppEv @70
    _ZNSt4listI9__Point2DSaIS0_EE11_M_transferESt14_List_iteratorIS0_ES4_S4_ @71
    _ZNSt4listI9__Point2DSaIS0_EE14_M_create_nodeERKS0_ @72
    _ZNSt4listI9__Point2DSaIS0_EE22_M_initialize_dispatchISt20_List_const_iteratorIS0_EEEvT_S6_St12__false_type @73
    _ZNSt4listI9__Point2DSaIS0_EE25_M_check_equal_allocatorsERS2_ @74
    _ZNSt4listI9__Point2DSaIS0_EE3endEv @75
    _ZNSt4listI9__Point2DSaIS0_EE5beginEv @76
    _ZNSt4listI9__Point2DSaIS0_EE5clearEv @77
    _ZNSt4listI9__Point2DSaIS0_EE5eraseESt14_List_iteratorIS0_E @78
    _ZNSt4listI9__Point2DSaIS0_EE5eraseESt14_List_iteratorIS0_ES4_ @79
    _ZNSt4listI9__Point2DSaIS0_EE6insertISt20_List_const_iteratorIS0_EEEvSt14_List_iteratorIS0_ET_S8_ @80
    _ZNSt4listI9__Point2DSaIS0_EE6spliceESt14_List_iteratorIS0_ERS2_ @81
    _ZNSt4listI9__Point2DSaIS0_EE8_M_eraseESt14_List_iteratorIS0_E @82
    _ZNSt4listI9__Point2DSaIS0_EE9_M_insertESt14_List_iteratorIS0_ERKS0_ @83
    _ZNSt4listI9__Point2DSaIS0_EE9push_backERKS0_ @84
    _ZNSt4listI9__Point2DSaIS0_EEC1ERKS2_ @85
    _ZNSt4listI9__Point2DSaIS0_EEC1Ev @86
    _ZNSt4listI9__Point2DSaIS0_EEC1ISt20_List_const_iteratorIS0_EEET_S6_RKS1_ @87
    _ZNSt4listI9__Point2DSaIS0_EED1Ev @88
    _ZNSt4listI9__Point2DSaIS0_EEaSERKS2_ @89
    _ZSt11__addressofI9__Point2DEPT_RS1_ @90
    _ZnwjPv @91
    _get_output_format @92
    lock @93 DATA
